; Function Attrs: mustprogress uwtable
define noundef ptr @_ZN5boost9container3pmr26synchronized_pool_resource11do_allocateEmm(ptr noundef nonnull align 8 dereferenceable(104) %0, i64 noundef %1, i64 noundef %2) unnamed_addr #3 align 2 personality ptr @__gxx_personality_v0 {
  %4 = getelementptr inbounds nuw i8, ptr %0, i64 8
  %5 = tail call i32 @pthread_mutex_lock(ptr noundef nonnull align 8 dereferenceable(40) %4) #6
  %6 = getelementptr inbounds nuw i8, ptr %0, i64 48
  %7 = invoke noundef ptr @_ZN5boost9container3pmr13pool_resource11do_allocateEmm(ptr noundef nonnull align 8 dereferenceable(56) %6, i64 noundef %1, i64 noundef %2)
          to label %8 unwind label %10

8:                                                ; preds = %3
  %9 = tail call i32 @pthread_mutex_unlock(ptr noundef nonnull align 8 dereferenceable(40) %4) #6
  ret ptr %7

10:                                               ; preds = %3
  %11 = landingpad { ptr, i32 }
          cleanup
  %12 = tail call i32 @pthread_mutex_unlock(ptr noundef nonnull align 8 dereferenceable(40) %4) #6
  resume { ptr, i32 } %11
}